target datalayout = "e-m:e-p270:32:32-p271:32:32-p272:64:64-i64:64-i128:128-f80:128-n8:16:32:64-S128"
target triple = "x86_64-pc-linux-gnu"

%struct._Node = type { %union.anon }
%union.anon = type { %struct.StrNode }
%struct.StrNode = type { %struct.NodeBase, ptr, ptr, i32, i32, [24 x i8] }
%struct.NodeBase = type { i32 }

; Function Attrs: nounwind sspstrong uwtable
define dso_local void @onig_node_str_clear(ptr noundef %0) #0 {
  %2 = alloca ptr, align 8
  store ptr %0, ptr %2, align 8, !tbaa !68
  %3 = load ptr, ptr %2, align 8, !tbaa !68
  %4 = getelementptr inbounds nuw %struct._Node, ptr %3, i32 0, i32 0
  %5 = getelementptr inbounds nuw %struct.StrNode, ptr %4, i32 0, i32 4
  %6 = load i32, ptr %5, align 4, !tbaa !17
  %7 = icmp ne i32 %6, 0
  br i1 %7, label %8, label %29

8:                                                ; preds = %1
  %9 = load ptr, ptr %2, align 8, !tbaa !68
  %10 = getelementptr inbounds nuw %struct._Node, ptr %9, i32 0, i32 0
  %11 = getelementptr inbounds nuw %struct.StrNode, ptr %10, i32 0, i32 1
  %12 = load ptr, ptr %11, align 8, !tbaa !17
  %13 = icmp ne ptr %12, null
  br i1 %13, label %14, label %29

14:                                               ; preds = %8
  %15 = load ptr, ptr %2, align 8, !tbaa !68
  %16 = getelementptr inbounds nuw %struct._Node, ptr %15, i32 0, i32 0
  %17 = getelementptr inbounds nuw %struct.StrNode, ptr %16, i32 0, i32 1
  %18 = load ptr, ptr %17, align 8, !tbaa !17
  %19 = load ptr, ptr %2, align 8, !tbaa !68
  %20 = getelementptr inbounds nuw %struct._Node, ptr %19, i32 0, i32 0
  %21 = getelementptr inbounds nuw %struct.StrNode, ptr %20, i32 0, i32 5
  %22 = getelementptr inbounds [24 x i8], ptr %21, i64 0, i64 0
  %23 = icmp ne ptr %18, %22
  br i1 %23, label %24, label %29

24:                                               ; preds = %14
  %25 = load ptr, ptr %2, align 8, !tbaa !68
  %26 = getelementptr inbounds nuw %struct._Node, ptr %25, i32 0, i32 0
  %27 = getelementptr inbounds nuw %struct.StrNode, ptr %26, i32 0, i32 1
  %28 = load ptr, ptr %27, align 8, !tbaa !17
  call void @free(ptr noundef %28) #13
  br label %29

29:                                               ; preds = %24, %14, %8, %1
  %30 = load ptr, ptr %2, align 8, !tbaa !68
  %31 = getelementptr inbounds nuw %struct._Node, ptr %30, i32 0, i32 0
  %32 = getelementptr inbounds nuw %struct.StrNode, ptr %31, i32 0, i32 4
  store i32 0, ptr %32, align 4, !tbaa !17
  %33 = load ptr, ptr %2, align 8, !tbaa !68
  %34 = getelementptr inbounds nuw %struct._Node, ptr %33, i32 0, i32 0
  %35 = getelementptr inbounds nuw %struct.StrNode, ptr %34, i32 0, i32 3
  store i32 0, ptr %35, align 8, !tbaa !17
  %36 = load ptr, ptr %2, align 8, !tbaa !68
  %37 = getelementptr inbounds nuw %struct._Node, ptr %36, i32 0, i32 0
  %38 = getelementptr inbounds nuw %struct.StrNode, ptr %37, i32 0, i32 5
  %39 = getelementptr inbounds [24 x i8], ptr %38, i64 0, i64 0
  %40 = load ptr, ptr %2, align 8, !tbaa !68
  %41 = getelementptr inbounds nuw %struct._Node, ptr %40, i32 0, i32 0
  %42 = getelementptr inbounds nuw %struct.StrNode, ptr %41, i32 0, i32 1
  store ptr %39, ptr %42, align 8, !tbaa !17
  %43 = load ptr, ptr %2, align 8, !tbaa !68
  %44 = getelementptr inbounds nuw %struct._Node, ptr %43, i32 0, i32 0
  %45 = getelementptr inbounds nuw %struct.StrNode, ptr %44, i32 0, i32 5
  %46 = getelementptr inbounds [24 x i8], ptr %45, i64 0, i64 0
  %47 = load ptr, ptr %2, align 8, !tbaa !68
  %48 = getelementptr inbounds nuw %struct._Node, ptr %47, i32 0, i32 0
  %49 = getelementptr inbounds nuw %struct.StrNode, ptr %48, i32 0, i32 2
  store ptr %46, ptr %49, align 8, !tbaa !17
  ret void
}