; Function Attrs: mustprogress nounwind sspstrong willreturn uwtable
define dso_local void @onig_node_str_clear(ptr noundef %0) local_unnamed_addr #12 {
  %2 = getelementptr inbounds nuw i8, ptr %0, i64 28
  %3 = load i32, ptr %2, align 4, !tbaa !13
  %.not = icmp eq i32 %3, 0
  br i1 %.not, label %9, label %4

4:                                                ; preds = %1
  %5 = getelementptr inbounds nuw i8, ptr %0, i64 8
  %6 = load ptr, ptr %5, align 8, !tbaa !13
  %.not11 = icmp eq ptr %6, null
  %7 = getelementptr inbounds nuw i8, ptr %0, i64 32
  %.not12 = icmp eq ptr %6, %7
  %or.cond = select i1 %.not11, i1 true, i1 %.not12
  br i1 %or.cond, label %9, label %8

8:                                                ; preds = %4
  tail call void @free(ptr noundef nonnull %6) #25
  br label %9

9:                                                ; preds = %8, %4, %1
  store i32 0, ptr %2, align 4, !tbaa !13
  %10 = getelementptr inbounds nuw i8, ptr %0, i64 24
  store i32 0, ptr %10, align 8, !tbaa !13
  %11 = getelementptr inbounds nuw i8, ptr %0, i64 32
  %12 = getelementptr inbounds nuw i8, ptr %0, i64 8
  store ptr %11, ptr %12, align 8, !tbaa !13
  %13 = getelementptr inbounds nuw i8, ptr %0, i64 16
  store ptr %11, ptr %13, align 8, !tbaa !13
  ret void
}